; Function Attrs: mustprogress nounwind uwtable
define internal void @_ZN12_GLOBAL__N_123NugetReadBinaryProviderD0Ev(ptr noundef nonnull align 8 dereferenceable(232) %0) unnamed_addr #4 align 2 {
  store ptr getelementptr inbounds ({ [7 x ptr] }, ptr @_ZTVN12_GLOBAL__N_123NugetReadBinaryProviderE, i64 0, i32 0, i64 2), ptr %0, align 8
  %2 = getelementptr inbounds i8, ptr %0, i64 200
  tail call void @_ZNSt7__cxx1112basic_stringIcSt11char_traitsIcESaIcEED1Ev(ptr noundef nonnull align 8 dereferenceable(32) %2) #24
  %3 = getelementptr inbounds i8, ptr %0, i64 152
  tail call void @_ZNSt7__cxx1112basic_stringIcSt11char_traitsIcESaIcEED1Ev(ptr noundef nonnull align 8 dereferenceable(32) %3) #24
  %4 = getelementptr inbounds i8, ptr %0, i64 120
  tail call void @_ZNSt7__cxx1112basic_stringIcSt11char_traitsIcESaIcEED1Ev(ptr noundef nonnull align 8 dereferenceable(32) %4) #24
  %5 = getelementptr inbounds i8, ptr %0, i64 88
  tail call void @_ZNSt7__cxx1112basic_stringIcSt11char_traitsIcESaIcEED1Ev(ptr noundef nonnull align 8 dereferenceable(32) %5) #24
  %6 = getelementptr inbounds i8, ptr %0, i64 16
  %7 = getelementptr inbounds i8, ptr %0, i64 48
  tail call void @_ZNSt7__cxx1112basic_stringIcSt11char_traitsIcESaIcEED1Ev(ptr noundef nonnull align 8 dereferenceable(32) %7) #24
  tail call void @_ZNSt7__cxx1112basic_stringIcSt11char_traitsIcESaIcEED1Ev(ptr noundef nonnull align 8 dereferenceable(32) %6) #24
  tail call void @_ZdlPv(ptr noundef nonnull %0) #25
  ret void
}